; Function Attrs: mustprogress uwtable
define void @_ZN6icu_7518UnicodeSetIterator9loadRangeEi(ptr nocapture noundef nonnull align 8 dereferenceable(64) %this, i32 noundef %iRange) local_unnamed_addr #1 align 2 {
entry:
  %set = getelementptr inbounds i8, ptr %this, i64 24
  %0 = load ptr, ptr %set, align 8
  %call = tail call noundef i32 @_ZNK6icu_7510UnicodeSet13getRangeStartEi(ptr noundef nonnull align 8 dereferenceable(200) %0, i32 noundef %iRange)
  %nextElement = getelementptr inbounds i8, ptr %this, i64 44
  store i32 %call, ptr %nextElement, align 4
  %1 = load ptr, ptr %set, align 8
  %call3 = tail call noundef i32 @_ZNK6icu_7510UnicodeSet11getRangeEndEi(ptr noundef nonnull align 8 dereferenceable(200) %1, i32 noundef %iRange)
  %endElement = getelementptr inbounds i8, ptr %this, i64 40
  store i32 %call3, ptr %endElement, align 8
  ret void
}